; Function Attrs: mustprogress nounwind uwtable
define dso_local noundef zeroext i1 @_ZNK4llvm15TreePredicateFn12isAlwaysTrueEv(ptr nocapture noundef nonnull readonly align 8 dereferenceable(8) %0) local_unnamed_addr #0 align 2 {
  %2 = tail call noundef zeroext i1 @_ZNK4llvm15TreePredicateFn11hasPredCodeEv(ptr noundef nonnull align 8 dereferenceable(8) %0)
  br i1 %2, label %9, label %3

3:                                                ; preds = %1
  %4 = load ptr, ptr %0, align 8
  %5 = getelementptr inbounds nuw i8, ptr %4, i64 48
  %6 = load ptr, ptr %5, align 8
  %7 = tail call { ptr, i64 } @_ZNK4llvm6Record16getValueAsStringENS_9StringRefE(ptr noundef nonnull align 8 dereferenceable(192) %6, ptr nonnull @.str.64, i64 13) #29
  %8 = extractvalue { ptr, i64 } %7, 1
  %.not = icmp eq i64 %8, 0
  br label %9

9:                                                ; preds = %3, %1
  %10 = phi i1 [ false, %1 ], [ %.not, %3 ]
  ret i1 %10
}